target datalayout = "e-m:e-p270:32:32-p271:32:32-p272:64:64-i64:64-i128:128-f80:128-n8:16:32:64-S128"
target triple = "x86_64-pc-linux-gnu"

%struct.FFFrameSync = type { ptr, ptr, i32, %struct.AVRational, i64, ptr, ptr, i32, i32, i8, i8, ptr, i32, i32, i32, i32 }
%struct.AVRational = type { i32, i32 }
%struct.FFFrameSyncIn = type { i32, i32, %struct.AVRational, ptr, ptr, i64, i64, i8, i8, i32, i32 }

; Function Attrs: nounwind uwtable
define void @ff_framesync_uninit(ptr noundef %0) #0 {
  %2 = alloca ptr, align 8
  %3 = alloca i32, align 4
  store ptr %0, ptr %2, align 8, !tbaa !12
  call void @llvm.lifetime.start.p0(i64 4, ptr %3) #7
  store i32 0, ptr %3, align 4, !tbaa !22
  br label %4

4:                                                ; preds = %25, %1
  %5 = load i32, ptr %3, align 4, !tbaa !22
  %6 = load ptr, ptr %2, align 8, !tbaa !12
  %7 = getelementptr inbounds nuw %struct.FFFrameSync, ptr %6, i32 0, i32 2
  %8 = load i32, ptr %7, align 8, !tbaa !34
  %9 = icmp ult i32 %5, %8
  br i1 %9, label %10, label %28

10:                                               ; preds = %4
  %11 = load ptr, ptr %2, align 8, !tbaa !12
  %12 = getelementptr inbounds nuw %struct.FFFrameSync, ptr %11, i32 0, i32 11
  %13 = load ptr, ptr %12, align 8, !tbaa !35
  %14 = load i32, ptr %3, align 4, !tbaa !22
  %15 = zext i32 %14 to i64
  %16 = getelementptr inbounds nuw %struct.FFFrameSyncIn, ptr %13, i64 %15
  %17 = getelementptr inbounds nuw %struct.FFFrameSyncIn, ptr %16, i32 0, i32 3
  call void @av_frame_free(ptr noundef %17)
  %18 = load ptr, ptr %2, align 8, !tbaa !12
  %19 = getelementptr inbounds nuw %struct.FFFrameSync, ptr %18, i32 0, i32 11
  %20 = load ptr, ptr %19, align 8, !tbaa !35
  %21 = load i32, ptr %3, align 4, !tbaa !22
  %22 = zext i32 %21 to i64
  %23 = getelementptr inbounds nuw %struct.FFFrameSyncIn, ptr %20, i64 %22
  %24 = getelementptr inbounds nuw %struct.FFFrameSyncIn, ptr %23, i32 0, i32 4
  call void @av_frame_free(ptr noundef %24)
  br label %25

25:                                               ; preds = %10
  %26 = load i32, ptr %3, align 4, !tbaa !22
  %27 = add i32 %26, 1
  store i32 %27, ptr %3, align 4, !tbaa !22
  br label %4, !llvm.loop !69

28:                                               ; preds = %4
  %29 = load ptr, ptr %2, align 8, !tbaa !12
  %30 = getelementptr inbounds nuw %struct.FFFrameSync, ptr %29, i32 0, i32 11
  call void @av_freep(ptr noundef %30)
  call void @llvm.lifetime.end.p0(i64 4, ptr %3) #7
  ret void
}